target datalayout = "e-m:e-p270:32:32-p271:32:32-p272:64:64-i64:64-i128:128-f80:128-n8:16:32:64-S128"
target triple = "x86_64-pc-linux-gnu"

%struct.cli_hashtable = type { ptr, i64, i64, i64 }
%struct.iconv_cache = type { ptr, i64, i64, %struct.cli_hashtable }

@.str.800 = private unnamed_addr constant [35 x i8] c"entconv: Destroying iconv pool:%p\0A\00", align 1
@.str.801 = private unnamed_addr constant [27 x i8] c"entconv: closing iconv:%p\0A\00", align 1

; Function Attrs: nounwind uwtable
define internal void @iconv_cache_destroy(ptr noundef %0) #0 {
  %2 = alloca ptr, align 8
  %3 = alloca i64, align 8
  store ptr %0, ptr %2, align 8
  %4 = load ptr, ptr %2, align 8
  call void (ptr, ...) @cli_dbgmsg(ptr noundef @.str.800, ptr noundef %4)
  store i64 0, ptr %3, align 8
  br label %5

5:                                                ; preds = %25, %1
  %6 = load i64, ptr %3, align 8
  %7 = load ptr, ptr %2, align 8
  %8 = getelementptr inbounds %struct.iconv_cache, ptr %7, i32 0, i32 2
  %9 = load i64, ptr %8, align 8
  %10 = icmp ult i64 %6, %9
  br i1 %10, label %11, label %28

11:                                               ; preds = %5
  %12 = load ptr, ptr %2, align 8
  %13 = getelementptr inbounds %struct.iconv_cache, ptr %12, i32 0, i32 0
  %14 = load ptr, ptr %13, align 8
  %15 = load i64, ptr %3, align 8
  %16 = getelementptr inbounds ptr, ptr %14, i64 %15
  %17 = load ptr, ptr %16, align 8
  call void (ptr, ...) @cli_dbgmsg(ptr noundef @.str.801, ptr noundef %17)
  %18 = load ptr, ptr %2, align 8
  %19 = getelementptr inbounds %struct.iconv_cache, ptr %18, i32 0, i32 0
  %20 = load ptr, ptr %19, align 8
  %21 = load i64, ptr %3, align 8
  %22 = getelementptr inbounds ptr, ptr %20, i64 %21
  %23 = load ptr, ptr %22, align 8
  %24 = call i32 @iconv_close(ptr noundef %23)
  br label %25

25:                                               ; preds = %11
  %26 = load i64, ptr %3, align 8
  %27 = add i64 %26, 1
  store i64 %27, ptr %3, align 8
  br label %5

28:                                               ; preds = %5
  %29 = load ptr, ptr %2, align 8
  %30 = getelementptr inbounds %struct.iconv_cache, ptr %29, i32 0, i32 3
  call void @cli_hashtab_clear(ptr noundef %30)
  %31 = load ptr, ptr %2, align 8
  %32 = getelementptr inbounds %struct.iconv_cache, ptr %31, i32 0, i32 3
  %33 = getelementptr inbounds %struct.cli_hashtable, ptr %32, i32 0, i32 0
  %34 = load ptr, ptr %33, align 8
  call void @free(ptr noundef %34) #11
  %35 = load ptr, ptr %2, align 8
  %36 = getelementptr inbounds %struct.iconv_cache, ptr %35, i32 0, i32 0
  %37 = load ptr, ptr %36, align 8
  call void @free(ptr noundef %37) #11
  %38 = load ptr, ptr %2, align 8
  call void @free(ptr noundef %38) #11
  ret void
}

; Function Attrs: nounwind uwtable
define internal void @iconv_pool_tls_instance_destroy(ptr noundef %0) #0 {
  %2 = alloca ptr, align 8
  store ptr %0, ptr %2, align 8
  %3 = load ptr, ptr %2, align 8
  %4 = icmp ne ptr %3, null
  br i1 %4, label %5, label %7

5:                                                ; preds = %1
  %6 = load ptr, ptr %2, align 8
  call void @iconv_cache_destroy(ptr noundef %6)
  br label %7

7:                                                ; preds = %5, %1
  ret void
}