; Function Attrs: nounwind uwtable
define internal void @iconv_pool_tls_instance_destroy(ptr noundef %0) #0 {
  %.not = icmp eq ptr %0, null
  br i1 %.not, label %18, label %2

2:                                                ; preds = %1
  tail call void (ptr, ...) @cli_dbgmsg(ptr noundef nonnull @.str.800, ptr noundef nonnull %0) #16
  %3 = getelementptr inbounds i8, ptr %0, i64 16
  %4 = load i64, ptr %3, align 8
  %.not.i = icmp eq i64 %4, 0
  br i1 %.not.i, label %iconv_cache_destroy.exit, label %.lr.ph.i

.lr.ph.i:                                         ; preds = %2, %.lr.ph.i
  %.011.i = phi i64 [ %12, %.lr.ph.i ], [ 0, %2 ]
  %5 = load ptr, ptr %0, align 8
  %6 = getelementptr inbounds ptr, ptr %5, i64 %.011.i
  %7 = load ptr, ptr %6, align 8
  tail call void (ptr, ...) @cli_dbgmsg(ptr noundef nonnull @.str.801, ptr noundef %7) #16
  %8 = load ptr, ptr %0, align 8
  %9 = getelementptr inbounds ptr, ptr %8, i64 %.011.i
  %10 = load ptr, ptr %9, align 8
  %11 = tail call i32 @iconv_close(ptr noundef %10) #16
  %12 = add nuw i64 %.011.i, 1
  %13 = load i64, ptr %3, align 8
  %14 = icmp ult i64 %12, %13
  br i1 %14, label %.lr.ph.i, label %iconv_cache_destroy.exit

iconv_cache_destroy.exit:                         ; preds = %.lr.ph.i, %2
  %15 = getelementptr inbounds i8, ptr %0, i64 24
  tail call void @cli_hashtab_clear(ptr noundef nonnull %15) #16
  %16 = load ptr, ptr %15, align 8
  tail call void @free(ptr noundef %16) #16
  %17 = load ptr, ptr %0, align 8
  tail call void @free(ptr noundef %17) #16
  tail call void @free(ptr noundef nonnull %0) #16
  br label %18

18:                                               ; preds = %iconv_cache_destroy.exit, %1
  ret void
}